; Function Attrs: mustprogress null_pointer_is_valid sspstrong uwtable
define void @_ZN9ProtoTree12syncExpandedERK11QModelIndex(ptr noundef readonly align 8 captures(none) dereferenceable_or_null(208) %0, ptr noundef align 8 dereferenceable(24) %1) #0 align 2 personality ptr @__gxx_personality_v0 {
  %3 = alloca %class.FieldInformation, align 8
  call void @llvm.lifetime.start.p0(i64 40, ptr nonnull %3) #21
  %4 = getelementptr inbounds nuw i8, ptr %0, i64 40
  %5 = load ptr, ptr %4, align 8
  %6 = tail call noundef ptr @_ZNK14ProtoTreeModel18protoNodeFromIndexERK11QModelIndex(ptr noundef align 8 dereferenceable_or_null(24) %5, ptr noundef align 8 dereferenceable(24) %1)
  call void @_ZN16FieldInformationC1EPK9ProtoNodeP7QObject(ptr noundef nonnull align 8 dereferenceable_or_null(40) %3, ptr noundef %6, ptr noundef null)
  %7 = invoke noundef zeroext i1 @_ZNK16FieldInformation7isValidEv(ptr noundef nonnull align 8 dereferenceable_or_null(40) %3)
          to label %8 unwind label %9

8:                                                ; preds = %2
  br i1 %7, label %11, label %17

9:                                                ; preds = %16, %14, %11, %2
  %10 = landingpad { ptr, i32 }
          cleanup
  call void @_ZN7QObjectD2Ev(ptr noundef nonnull align 8 dereferenceable_or_null(40) %3) #21
  call void @llvm.lifetime.end.p0(i64 40, ptr nonnull %3) #21
  resume { ptr, i32 } %10

11:                                               ; preds = %8
  %12 = invoke noundef i32 @_ZN16FieldInformation8treeTypeEv(ptr noundef nonnull align 8 dereferenceable_or_null(40) %3)
          to label %13 unwind label %9

13:                                               ; preds = %11
  %.not = icmp eq i32 %12, -1
  br i1 %.not, label %17, label %14

14:                                               ; preds = %13
  %15 = invoke noundef i32 @_ZN16FieldInformation8treeTypeEv(ptr noundef nonnull align 8 dereferenceable_or_null(40) %3)
          to label %16 unwind label %9

16:                                               ; preds = %14
  invoke void @tree_expanded_set(i32 noundef %15, i1 noundef zeroext true)
          to label %17 unwind label %9

17:                                               ; preds = %13, %16, %8
  call void @_ZN7QObjectD2Ev(ptr noundef nonnull align 8 dereferenceable_or_null(40) %3) #21
  call void @llvm.lifetime.end.p0(i64 40, ptr nonnull %3) #21
  ret void
}